; Function Attrs: null_pointer_is_valid sspstrong uwtable
define hidden noundef ptr @ieee802154_create_hie_tree(ptr noundef %0, ptr noundef %1, i32 noundef %2, i32 noundef %3) local_unnamed_addr #0 {
  %5 = tail call i32 @tvb_reported_length(ptr noundef %0)
  %6 = tail call ptr @proto_tree_add_item(ptr noundef %1, i32 noundef %2, ptr noundef %0, i32 noundef 0, i32 noundef %5, i32 noundef 0)
  %7 = tail call ptr @proto_item_add_subtree(ptr noundef %6, i32 noundef %3)
  %8 = load i32, ptr @hf_ieee802154_header_ie_tlv, align 4
  %9 = load i32, ptr @ett_ieee802154_header_ie_tlv, align 4
  %10 = tail call ptr @proto_tree_add_bitmask_with_flags(ptr noundef %7, ptr noundef %0, i32 noundef 0, i32 noundef %8, i32 noundef %9, ptr noundef nonnull @ieee802154_create_hie_tree.tlv_fields, i32 noundef -2147483648, i32 noundef 0)
  %11 = tail call ptr @proto_registrar_get_nth(i32 noundef %2)
  %.not = icmp eq ptr %11, null
  br i1 %.not, label %17, label %12

12:                                               ; preds = %4
  %13 = load ptr, ptr %11, align 8
  %.not13 = icmp eq ptr %13, null
  br i1 %.not13, label %17, label %14

14:                                               ; preds = %12
  %15 = tail call ptr @proto_tree_get_parent(ptr noundef %1)
  %16 = load ptr, ptr %11, align 8
  tail call void (ptr, ptr, ...) @proto_item_append_text(ptr noundef %15, ptr noundef nonnull @.str.31, ptr noundef %16)
  br label %17

17:                                               ; preds = %14, %12, %4
  ret ptr %7
}